   1               		.file	"i1wire.c"
   2               	__SP_H__ = 0x3e
   3               	__SP_L__ = 0x3d
   4               	__SREG__ = 0x3f
   5               	__tmp_reg__ = 0
   6               	__zero_reg__ = 1
   7               		.text
   8               	.Ltext0:
   9               		.cfi_sections	.debug_frame
  10               	.global	OW_reset
  12               	OW_reset:
  13               	.LFB6:
  14               		.file 1 "i1wire.c"
   1:i1wire.c      **** #include "i1wire.h"
   2:i1wire.c      **** 
   3:i1wire.c      **** uint8_t OW_reset(void){
  15               		.loc 1 3 0
  16               		.cfi_startproc
  17               	/* prologue: function */
  18               	/* frame size = 0 */
  19               	/* stack size = 0 */
  20               	.L__stack_usage = 0
   4:i1wire.c      **** 	
   5:i1wire.c      **** 	uint8_t result;
   6:i1wire.c      **** 	
   7:i1wire.c      **** 	OW_low;
  21               		.loc 1 7 0
  22 0000 BB9A      		sbi 0x17,3
  23               	.LVL0:
  24               	.LBB30:
  25               	.LBB31:
  26               		.file 2 "/usr/lib/avr/include/util/delay.h"
   1:/usr/lib/avr/include/util/delay.h **** /* Copyright (c) 2002, Marek Michalkiewicz
   2:/usr/lib/avr/include/util/delay.h ****    Copyright (c) 2004,2005,2007 Joerg Wunsch
   3:/usr/lib/avr/include/util/delay.h ****    Copyright (c) 2007  Florin-Viorel Petrov
   4:/usr/lib/avr/include/util/delay.h ****    All rights reserved.
   5:/usr/lib/avr/include/util/delay.h **** 
   6:/usr/lib/avr/include/util/delay.h ****    Redistribution and use in source and binary forms, with or without
   7:/usr/lib/avr/include/util/delay.h ****    modification, are permitted provided that the following conditions are met:
   8:/usr/lib/avr/include/util/delay.h **** 
   9:/usr/lib/avr/include/util/delay.h ****    * Redistributions of source code must retain the above copyright
  10:/usr/lib/avr/include/util/delay.h ****      notice, this list of conditions and the following disclaimer.
  11:/usr/lib/avr/include/util/delay.h **** 
  12:/usr/lib/avr/include/util/delay.h ****    * Redistributions in binary form must reproduce the above copyright
  13:/usr/lib/avr/include/util/delay.h ****      notice, this list of conditions and the following disclaimer in
  14:/usr/lib/avr/include/util/delay.h ****      the documentation and/or other materials provided with the
  15:/usr/lib/avr/include/util/delay.h ****      distribution.
  16:/usr/lib/avr/include/util/delay.h **** 
  17:/usr/lib/avr/include/util/delay.h ****    * Neither the name of the copyright holders nor the names of
  18:/usr/lib/avr/include/util/delay.h ****      contributors may be used to endorse or promote products derived
  19:/usr/lib/avr/include/util/delay.h ****      from this software without specific prior written permission.
  20:/usr/lib/avr/include/util/delay.h **** 
  21:/usr/lib/avr/include/util/delay.h ****   THIS SOFTWARE IS PROVIDED BY THE COPYRIGHT HOLDERS AND CONTRIBUTORS "AS IS"
  22:/usr/lib/avr/include/util/delay.h ****   AND ANY EXPRESS OR IMPLIED WARRANTIES, INCLUDING, BUT NOT LIMITED TO, THE
  23:/usr/lib/avr/include/util/delay.h ****   IMPLIED WARRANTIES OF MERCHANTABILITY AND FITNESS FOR A PARTICULAR PURPOSE
  24:/usr/lib/avr/include/util/delay.h ****   ARE DISCLAIMED. IN NO EVENT SHALL THE COPYRIGHT OWNER OR CONTRIBUTORS BE
  25:/usr/lib/avr/include/util/delay.h ****   LIABLE FOR ANY DIRECT, INDIRECT, INCIDENTAL, SPECIAL, EXEMPLARY, OR
  26:/usr/lib/avr/include/util/delay.h ****   CONSEQUENTIAL DAMAGES (INCLUDING, BUT NOT LIMITED TO, PROCUREMENT OF
  27:/usr/lib/avr/include/util/delay.h ****   SUBSTITUTE GOODS OR SERVICES; LOSS OF USE, DATA, OR PROFITS; OR BUSINESS
  28:/usr/lib/avr/include/util/delay.h ****   INTERRUPTION) HOWEVER CAUSED AND ON ANY THEORY OF LIABILITY, WHETHER IN
  29:/usr/lib/avr/include/util/delay.h ****   CONTRACT, STRICT LIABILITY, OR TORT (INCLUDING NEGLIGENCE OR OTHERWISE)
  30:/usr/lib/avr/include/util/delay.h ****   ARISING IN ANY WAY OUT OF THE USE OF THIS SOFTWARE, EVEN IF ADVISED OF THE
  31:/usr/lib/avr/include/util/delay.h ****   POSSIBILITY OF SUCH DAMAGE. */
  32:/usr/lib/avr/include/util/delay.h **** 
  33:/usr/lib/avr/include/util/delay.h **** /* $Id$ */
  34:/usr/lib/avr/include/util/delay.h **** 
  35:/usr/lib/avr/include/util/delay.h **** #ifndef _UTIL_DELAY_H_
  36:/usr/lib/avr/include/util/delay.h **** #define _UTIL_DELAY_H_ 1
  37:/usr/lib/avr/include/util/delay.h **** 
  38:/usr/lib/avr/include/util/delay.h **** #ifndef __DOXYGEN__
  39:/usr/lib/avr/include/util/delay.h **** #  ifndef __HAS_DELAY_CYCLES
  40:/usr/lib/avr/include/util/delay.h **** #    define __HAS_DELAY_CYCLES 1
  41:/usr/lib/avr/include/util/delay.h **** #  endif
  42:/usr/lib/avr/include/util/delay.h **** #endif  /* __DOXYGEN__ */
  43:/usr/lib/avr/include/util/delay.h **** 
  44:/usr/lib/avr/include/util/delay.h **** #include <inttypes.h>
  45:/usr/lib/avr/include/util/delay.h **** #include <util/delay_basic.h>
  46:/usr/lib/avr/include/util/delay.h **** #include <math.h>
  47:/usr/lib/avr/include/util/delay.h **** 
  48:/usr/lib/avr/include/util/delay.h **** /** \file */
  49:/usr/lib/avr/include/util/delay.h **** /** \defgroup util_delay <util/delay.h>: Convenience functions for busy-wait delay loops
  50:/usr/lib/avr/include/util/delay.h ****     \code
  51:/usr/lib/avr/include/util/delay.h ****     #define F_CPU 1000000UL  // 1 MHz
  52:/usr/lib/avr/include/util/delay.h ****     //#define F_CPU 14.7456E6
  53:/usr/lib/avr/include/util/delay.h ****     #include <util/delay.h>
  54:/usr/lib/avr/include/util/delay.h ****     \endcode
  55:/usr/lib/avr/include/util/delay.h **** 
  56:/usr/lib/avr/include/util/delay.h ****     \note As an alternative method, it is possible to pass the
  57:/usr/lib/avr/include/util/delay.h ****     F_CPU macro down to the compiler from the Makefile.
  58:/usr/lib/avr/include/util/delay.h ****     Obviously, in that case, no \c \#define statement should be
  59:/usr/lib/avr/include/util/delay.h ****     used.
  60:/usr/lib/avr/include/util/delay.h **** 
  61:/usr/lib/avr/include/util/delay.h ****     The functions in this header file are wrappers around the basic
  62:/usr/lib/avr/include/util/delay.h ****     busy-wait functions from <util/delay_basic.h>.  They are meant as
  63:/usr/lib/avr/include/util/delay.h ****     convenience functions where actual time values can be specified
  64:/usr/lib/avr/include/util/delay.h ****     rather than a number of cycles to wait for.  The idea behind is
  65:/usr/lib/avr/include/util/delay.h ****     that compile-time constant expressions will be eliminated by
  66:/usr/lib/avr/include/util/delay.h ****     compiler optimization so floating-point expressions can be used
  67:/usr/lib/avr/include/util/delay.h ****     to calculate the number of delay cycles needed based on the CPU
  68:/usr/lib/avr/include/util/delay.h ****     frequency passed by the macro F_CPU.
  69:/usr/lib/avr/include/util/delay.h **** 
  70:/usr/lib/avr/include/util/delay.h ****     \note In order for these functions to work as intended, compiler
  71:/usr/lib/avr/include/util/delay.h ****     optimizations <em>must</em> be enabled, and the delay time
  72:/usr/lib/avr/include/util/delay.h ****     <em>must</em> be an expression that is a known constant at
  73:/usr/lib/avr/include/util/delay.h ****     compile-time.  If these requirements are not met, the resulting
  74:/usr/lib/avr/include/util/delay.h ****     delay will be much longer (and basically unpredictable), and
  75:/usr/lib/avr/include/util/delay.h ****     applications that otherwise do not use floating-point calculations
  76:/usr/lib/avr/include/util/delay.h ****     will experience severe code bloat by the floating-point library
  77:/usr/lib/avr/include/util/delay.h ****     routines linked into the application.
  78:/usr/lib/avr/include/util/delay.h **** 
  79:/usr/lib/avr/include/util/delay.h ****     The functions available allow the specification of microsecond, and
  80:/usr/lib/avr/include/util/delay.h ****     millisecond delays directly, using the application-supplied macro
  81:/usr/lib/avr/include/util/delay.h ****     F_CPU as the CPU clock frequency (in Hertz).
  82:/usr/lib/avr/include/util/delay.h **** 
  83:/usr/lib/avr/include/util/delay.h **** */
  84:/usr/lib/avr/include/util/delay.h **** 
  85:/usr/lib/avr/include/util/delay.h **** #if !defined(__DOXYGEN__)
  86:/usr/lib/avr/include/util/delay.h **** static __inline__ void _delay_us(double __us) __attribute__((__always_inline__));
  87:/usr/lib/avr/include/util/delay.h **** static __inline__ void _delay_ms(double __ms) __attribute__((__always_inline__));
  88:/usr/lib/avr/include/util/delay.h **** #endif
  89:/usr/lib/avr/include/util/delay.h **** 
  90:/usr/lib/avr/include/util/delay.h **** #ifndef F_CPU
  91:/usr/lib/avr/include/util/delay.h **** /* prevent compiler error by supplying a default */
  92:/usr/lib/avr/include/util/delay.h **** # warning "F_CPU not defined for <util/delay.h>"
  93:/usr/lib/avr/include/util/delay.h **** /** \ingroup util_delay
  94:/usr/lib/avr/include/util/delay.h ****     \def F_CPU
  95:/usr/lib/avr/include/util/delay.h ****     \brief CPU frequency in Hz
  96:/usr/lib/avr/include/util/delay.h **** 
  97:/usr/lib/avr/include/util/delay.h ****     The macro F_CPU specifies the CPU frequency to be considered by
  98:/usr/lib/avr/include/util/delay.h ****     the delay macros.  This macro is normally supplied by the
  99:/usr/lib/avr/include/util/delay.h ****     environment (e.g. from within a project header, or the project's
 100:/usr/lib/avr/include/util/delay.h ****     Makefile).  The value 1 MHz here is only provided as a "vanilla"
 101:/usr/lib/avr/include/util/delay.h ****     fallback if no such user-provided definition could be found.
 102:/usr/lib/avr/include/util/delay.h **** 
 103:/usr/lib/avr/include/util/delay.h ****     In terms of the delay functions, the CPU frequency can be given as
 104:/usr/lib/avr/include/util/delay.h ****     a floating-point constant (e.g. 3.6864E6 for 3.6864 MHz).
 105:/usr/lib/avr/include/util/delay.h ****     However, the macros in <util/setbaud.h> require it to be an
 106:/usr/lib/avr/include/util/delay.h ****     integer value.
 107:/usr/lib/avr/include/util/delay.h ****  */
 108:/usr/lib/avr/include/util/delay.h **** # define F_CPU 1000000UL
 109:/usr/lib/avr/include/util/delay.h **** #endif
 110:/usr/lib/avr/include/util/delay.h **** 
 111:/usr/lib/avr/include/util/delay.h **** #ifndef __OPTIMIZE__
 112:/usr/lib/avr/include/util/delay.h **** # warning "Compiler optimizations disabled; functions from <util/delay.h> won't work as designed"
 113:/usr/lib/avr/include/util/delay.h **** #endif
 114:/usr/lib/avr/include/util/delay.h **** 
 115:/usr/lib/avr/include/util/delay.h **** #if __HAS_DELAY_CYCLES && defined(__OPTIMIZE__) && \
 116:/usr/lib/avr/include/util/delay.h ****   !defined(__DELAY_BACKWARD_COMPATIBLE__) &&	   \
 117:/usr/lib/avr/include/util/delay.h ****   __STDC_HOSTED__
 118:/usr/lib/avr/include/util/delay.h **** #  include <math.h>
 119:/usr/lib/avr/include/util/delay.h **** #endif
 120:/usr/lib/avr/include/util/delay.h **** 
 121:/usr/lib/avr/include/util/delay.h **** /**
 122:/usr/lib/avr/include/util/delay.h ****    \ingroup util_delay
 123:/usr/lib/avr/include/util/delay.h **** 
 124:/usr/lib/avr/include/util/delay.h ****    Perform a delay of \c __ms milliseconds, using _delay_loop_2().
 125:/usr/lib/avr/include/util/delay.h **** 
 126:/usr/lib/avr/include/util/delay.h ****    The macro F_CPU is supposed to be defined to a
 127:/usr/lib/avr/include/util/delay.h ****    constant defining the CPU clock frequency (in Hertz).
 128:/usr/lib/avr/include/util/delay.h **** 
 129:/usr/lib/avr/include/util/delay.h ****    The maximal possible delay is 262.14 ms / F_CPU in MHz.
 130:/usr/lib/avr/include/util/delay.h **** 
 131:/usr/lib/avr/include/util/delay.h ****    When the user request delay which exceed the maximum possible one,
 132:/usr/lib/avr/include/util/delay.h ****    _delay_ms() provides a decreased resolution functionality. In this
 133:/usr/lib/avr/include/util/delay.h ****    mode _delay_ms() will work with a resolution of 1/10 ms, providing
 134:/usr/lib/avr/include/util/delay.h ****    delays up to 6.5535 seconds (independent from CPU frequency).  The
 135:/usr/lib/avr/include/util/delay.h ****    user will not be informed about decreased resolution.
 136:/usr/lib/avr/include/util/delay.h **** 
 137:/usr/lib/avr/include/util/delay.h ****    If the avr-gcc toolchain has __builtin_avr_delay_cycles()
 138:/usr/lib/avr/include/util/delay.h ****    support, maximal possible delay is 4294967.295 ms/ F_CPU in MHz. For
 139:/usr/lib/avr/include/util/delay.h ****    values greater than the maximal possible delay, overflows results in
 140:/usr/lib/avr/include/util/delay.h ****    no delay i.e., 0ms.
 141:/usr/lib/avr/include/util/delay.h **** 
 142:/usr/lib/avr/include/util/delay.h ****    Conversion of \c __ms into clock cycles may not always result in
 143:/usr/lib/avr/include/util/delay.h ****    integer.  By default, the clock cycles rounded up to next
 144:/usr/lib/avr/include/util/delay.h ****    integer. This ensures that the user gets at least \c __ms
 145:/usr/lib/avr/include/util/delay.h ****    microseconds of delay.
 146:/usr/lib/avr/include/util/delay.h **** 
 147:/usr/lib/avr/include/util/delay.h ****    Alternatively, by defining the macro \c __DELAY_ROUND_DOWN__, or
 148:/usr/lib/avr/include/util/delay.h ****    \c __DELAY_ROUND_CLOSEST__, before including this header file, the
 149:/usr/lib/avr/include/util/delay.h ****    algorithm can be made to round down, or round to closest integer,
 150:/usr/lib/avr/include/util/delay.h ****    respectively.
 151:/usr/lib/avr/include/util/delay.h **** 
 152:/usr/lib/avr/include/util/delay.h ****    \note
 153:/usr/lib/avr/include/util/delay.h **** 
 154:/usr/lib/avr/include/util/delay.h ****    The implementation of _delay_ms() based on
 155:/usr/lib/avr/include/util/delay.h ****    __builtin_avr_delay_cycles() is not backward compatible with older
 156:/usr/lib/avr/include/util/delay.h ****    implementations.  In order to get functionality backward compatible
 157:/usr/lib/avr/include/util/delay.h ****    with previous versions, the macro \c "__DELAY_BACKWARD_COMPATIBLE__"
 158:/usr/lib/avr/include/util/delay.h ****    must be defined before including this header file. Also, the
 159:/usr/lib/avr/include/util/delay.h ****    backward compatible algorithm will be chosen if the code is
 160:/usr/lib/avr/include/util/delay.h ****    compiled in a <em>freestanding environment</em> (GCC option
 161:/usr/lib/avr/include/util/delay.h ****    \c -ffreestanding), as the math functions required for rounding are
 162:/usr/lib/avr/include/util/delay.h ****    not available to the compiler then.
 163:/usr/lib/avr/include/util/delay.h **** 
 164:/usr/lib/avr/include/util/delay.h ****  */
 165:/usr/lib/avr/include/util/delay.h **** void
 166:/usr/lib/avr/include/util/delay.h **** _delay_ms(double __ms)
 167:/usr/lib/avr/include/util/delay.h **** {
 168:/usr/lib/avr/include/util/delay.h **** 	double __tmp ;
 169:/usr/lib/avr/include/util/delay.h **** #if __HAS_DELAY_CYCLES && defined(__OPTIMIZE__) && \
 170:/usr/lib/avr/include/util/delay.h ****   !defined(__DELAY_BACKWARD_COMPATIBLE__) &&	   \
 171:/usr/lib/avr/include/util/delay.h ****   __STDC_HOSTED__
 172:/usr/lib/avr/include/util/delay.h **** 	uint32_t __ticks_dc;
 173:/usr/lib/avr/include/util/delay.h **** 	extern void __builtin_avr_delay_cycles(unsigned long);
 174:/usr/lib/avr/include/util/delay.h **** 	__tmp = ((F_CPU) / 1e3) * __ms;
 175:/usr/lib/avr/include/util/delay.h **** 
 176:/usr/lib/avr/include/util/delay.h **** 	#if defined(__DELAY_ROUND_DOWN__)
 177:/usr/lib/avr/include/util/delay.h **** 		__ticks_dc = (uint32_t)fabs(__tmp);
 178:/usr/lib/avr/include/util/delay.h **** 
 179:/usr/lib/avr/include/util/delay.h **** 	#elif defined(__DELAY_ROUND_CLOSEST__)
 180:/usr/lib/avr/include/util/delay.h **** 		__ticks_dc = (uint32_t)(fabs(__tmp)+0.5);
 181:/usr/lib/avr/include/util/delay.h **** 
 182:/usr/lib/avr/include/util/delay.h **** 	#else
 183:/usr/lib/avr/include/util/delay.h **** 		//round up by default
 184:/usr/lib/avr/include/util/delay.h **** 		__ticks_dc = (uint32_t)(ceil(fabs(__tmp)));
 185:/usr/lib/avr/include/util/delay.h **** 	#endif
 186:/usr/lib/avr/include/util/delay.h **** 
 187:/usr/lib/avr/include/util/delay.h **** 	__builtin_avr_delay_cycles(__ticks_dc);
 188:/usr/lib/avr/include/util/delay.h **** 
 189:/usr/lib/avr/include/util/delay.h **** #else
 190:/usr/lib/avr/include/util/delay.h **** 	uint16_t __ticks;
 191:/usr/lib/avr/include/util/delay.h **** 	__tmp = ((F_CPU) / 4e3) * __ms;
 192:/usr/lib/avr/include/util/delay.h **** 	if (__tmp < 1.0)
 193:/usr/lib/avr/include/util/delay.h **** 		__ticks = 1;
 194:/usr/lib/avr/include/util/delay.h **** 	else if (__tmp > 65535)
 195:/usr/lib/avr/include/util/delay.h **** 	{
 196:/usr/lib/avr/include/util/delay.h **** 		//	__ticks = requested delay in 1/10 ms
 197:/usr/lib/avr/include/util/delay.h **** 		__ticks = (uint16_t) (__ms * 10.0);
 198:/usr/lib/avr/include/util/delay.h **** 		while(__ticks)
 199:/usr/lib/avr/include/util/delay.h **** 		{
 200:/usr/lib/avr/include/util/delay.h **** 			// wait 1/10 ms
 201:/usr/lib/avr/include/util/delay.h **** 			_delay_loop_2(((F_CPU) / 4e3) / 10);
 202:/usr/lib/avr/include/util/delay.h **** 			__ticks --;
 203:/usr/lib/avr/include/util/delay.h **** 		}
 204:/usr/lib/avr/include/util/delay.h **** 		return;
 205:/usr/lib/avr/include/util/delay.h **** 	}
 206:/usr/lib/avr/include/util/delay.h **** 	else
 207:/usr/lib/avr/include/util/delay.h **** 		__ticks = (uint16_t)__tmp;
 208:/usr/lib/avr/include/util/delay.h **** 	_delay_loop_2(__ticks);
 209:/usr/lib/avr/include/util/delay.h **** #endif
 210:/usr/lib/avr/include/util/delay.h **** }
 211:/usr/lib/avr/include/util/delay.h **** 
 212:/usr/lib/avr/include/util/delay.h **** /**
 213:/usr/lib/avr/include/util/delay.h ****    \ingroup util_delay
 214:/usr/lib/avr/include/util/delay.h **** 
 215:/usr/lib/avr/include/util/delay.h ****    Perform a delay of \c __us microseconds, using _delay_loop_1().
 216:/usr/lib/avr/include/util/delay.h **** 
 217:/usr/lib/avr/include/util/delay.h ****    The macro F_CPU is supposed to be defined to a
 218:/usr/lib/avr/include/util/delay.h ****    constant defining the CPU clock frequency (in Hertz).
 219:/usr/lib/avr/include/util/delay.h **** 
 220:/usr/lib/avr/include/util/delay.h ****    The maximal possible delay is 768 us / F_CPU in MHz.
 221:/usr/lib/avr/include/util/delay.h **** 
 222:/usr/lib/avr/include/util/delay.h ****    If the user requests a delay greater than the maximal possible one,
 223:/usr/lib/avr/include/util/delay.h ****    _delay_us() will automatically call _delay_ms() instead.  The user
 224:/usr/lib/avr/include/util/delay.h ****    will not be informed about this case.
 225:/usr/lib/avr/include/util/delay.h **** 
 226:/usr/lib/avr/include/util/delay.h ****    If the avr-gcc toolchain has __builtin_avr_delay_cycles()
 227:/usr/lib/avr/include/util/delay.h ****    support, maximal possible delay is 4294967.295 us/ F_CPU in MHz. For
 228:/usr/lib/avr/include/util/delay.h ****    values greater than the maximal possible delay, overflow results in
 229:/usr/lib/avr/include/util/delay.h ****    no delay i.e., 0us.
 230:/usr/lib/avr/include/util/delay.h **** 
 231:/usr/lib/avr/include/util/delay.h ****    Conversion of \c __us into clock cycles may not always result in
 232:/usr/lib/avr/include/util/delay.h ****    integer.  By default, the clock cycles rounded up to next
 233:/usr/lib/avr/include/util/delay.h ****    integer. This ensures that the user gets at least \c __us
 234:/usr/lib/avr/include/util/delay.h ****    microseconds of delay.
 235:/usr/lib/avr/include/util/delay.h **** 
 236:/usr/lib/avr/include/util/delay.h ****    Alternatively, by defining the macro \c __DELAY_ROUND_DOWN__, or
 237:/usr/lib/avr/include/util/delay.h ****    \c __DELAY_ROUND_CLOSEST__, before including this header file, the
 238:/usr/lib/avr/include/util/delay.h ****    algorithm can be made to round down, or round to closest integer,
 239:/usr/lib/avr/include/util/delay.h ****    respectively.
 240:/usr/lib/avr/include/util/delay.h **** 
 241:/usr/lib/avr/include/util/delay.h ****    \note
 242:/usr/lib/avr/include/util/delay.h **** 
 243:/usr/lib/avr/include/util/delay.h ****    The implementation of _delay_ms() based on
 244:/usr/lib/avr/include/util/delay.h ****    __builtin_avr_delay_cycles() is not backward compatible with older
 245:/usr/lib/avr/include/util/delay.h ****    implementations.  In order to get functionality backward compatible
 246:/usr/lib/avr/include/util/delay.h ****    with previous versions, the macro \c __DELAY_BACKWARD_COMPATIBLE__
 247:/usr/lib/avr/include/util/delay.h ****    must be defined before including this header file. Also, the
 248:/usr/lib/avr/include/util/delay.h ****    backward compatible algorithm will be chosen if the code is
 249:/usr/lib/avr/include/util/delay.h ****    compiled in a <em>freestanding environment</em> (GCC option
 250:/usr/lib/avr/include/util/delay.h ****    \c -ffreestanding), as the math functions required for rounding are
 251:/usr/lib/avr/include/util/delay.h ****    not available to the compiler then.
 252:/usr/lib/avr/include/util/delay.h **** 
 253:/usr/lib/avr/include/util/delay.h ****  */
 254:/usr/lib/avr/include/util/delay.h **** void
 255:/usr/lib/avr/include/util/delay.h **** _delay_us(double __us)
 256:/usr/lib/avr/include/util/delay.h **** {
 257:/usr/lib/avr/include/util/delay.h **** 	double __tmp ;
 258:/usr/lib/avr/include/util/delay.h **** #if __HAS_DELAY_CYCLES && defined(__OPTIMIZE__) && \
 259:/usr/lib/avr/include/util/delay.h ****   !defined(__DELAY_BACKWARD_COMPATIBLE__) &&	   \
 260:/usr/lib/avr/include/util/delay.h ****   __STDC_HOSTED__
 261:/usr/lib/avr/include/util/delay.h **** 	uint32_t __ticks_dc;
 262:/usr/lib/avr/include/util/delay.h **** 	extern void __builtin_avr_delay_cycles(unsigned long);
 263:/usr/lib/avr/include/util/delay.h **** 	__tmp = ((F_CPU) / 1e6) * __us;
 264:/usr/lib/avr/include/util/delay.h **** 
 265:/usr/lib/avr/include/util/delay.h **** 	#if defined(__DELAY_ROUND_DOWN__)
 266:/usr/lib/avr/include/util/delay.h **** 		__ticks_dc = (uint32_t)fabs(__tmp);
 267:/usr/lib/avr/include/util/delay.h **** 
 268:/usr/lib/avr/include/util/delay.h **** 	#elif defined(__DELAY_ROUND_CLOSEST__)
 269:/usr/lib/avr/include/util/delay.h **** 		__ticks_dc = (uint32_t)(fabs(__tmp)+0.5);
 270:/usr/lib/avr/include/util/delay.h **** 
 271:/usr/lib/avr/include/util/delay.h **** 	#else
 272:/usr/lib/avr/include/util/delay.h **** 		//round up by default
 273:/usr/lib/avr/include/util/delay.h **** 		__ticks_dc = (uint32_t)(ceil(fabs(__tmp)));
 274:/usr/lib/avr/include/util/delay.h **** 	#endif
 275:/usr/lib/avr/include/util/delay.h **** 
 276:/usr/lib/avr/include/util/delay.h **** 	__builtin_avr_delay_cycles(__ticks_dc);
  27               		.loc 2 276 0
  28 0002 8FE7      		ldi r24,lo8(1919)
  29 0004 97E0      		ldi r25,hi8(1919)
  30 0006 0197      	1:	sbiw r24,1
  31 0008 01F4      		brne 1b
  32 000a 00C0      		rjmp .
  33 000c 0000      		nop
  34               	.LVL1:
  35               	.LBE31:
  36               	.LBE30:
   8:i1wire.c      **** 	_delay_us(480);
   9:i1wire.c      **** 	
  10:i1wire.c      **** 	OW_high;
  37               		.loc 1 10 0
  38 000e BB98      		cbi 0x17,3
  39               	.LVL2:
  40               	.LBB32:
  41               	.LBB33:
  42               		.loc 2 276 0
  43 0010 E7E1      		ldi r30,lo8(279)
  44 0012 F1E0      		ldi r31,hi8(279)
  45 0014 3197      	1:	sbiw r30,1
  46 0016 01F4      		brne 1b
  47 0018 00C0      		rjmp .
  48 001a 0000      		nop
  49               	.LVL3:
  50               	.LBE33:
  51               	.LBE32:
  11:i1wire.c      **** 	_delay_us(70);
  12:i1wire.c      **** 	
  13:i1wire.c      **** 	result = OW_check; 
  52               		.loc 1 13 0
  53 001c 86B3      		in r24,0x16
  54               	.LVL4:
  55               	.LBB34:
  56               	.LBB35:
  57               		.loc 2 276 0
  58 001e E7E6      		ldi r30,lo8(1639)
  59 0020 F6E0      		ldi r31,hi8(1639)
  60 0022 3197      	1:	sbiw r30,1
  61 0024 01F4      		brne 1b
  62 0026 00C0      		rjmp .
  63 0028 0000      		nop
  64               	.LVL5:
  65               	.LBE35:
  66               	.LBE34:
  14:i1wire.c      **** 	_delay_us(410); 
  15:i1wire.c      **** 	
  16:i1wire.c      **** 	return result; 
  17:i1wire.c      **** }
  67               		.loc 1 17 0
  68 002a 8870      		andi r24,lo8(8)
  69               	.LVL6:
  70 002c 0895      		ret
  71               		.cfi_endproc
  72               	.LFE6:
  74               	.global	OWWriteBit
  76               	OWWriteBit:
  77               	.LFB7:
  18:i1wire.c      **** 
  19:i1wire.c      **** 
  20:i1wire.c      **** 
  21:i1wire.c      **** void OWWriteBit(uint8_t bit){
  78               		.loc 1 21 0
  79               		.cfi_startproc
  80               	.LVL7:
  81               	/* prologue: function */
  82               	/* frame size = 0 */
  83               	/* stack size = 0 */
  84               	.L__stack_usage = 0
  85               	.LBB54:
  86               	.LBB55:
  22:i1wire.c      **** 	if (bit)
  23:i1wire.c      **** 	{
  24:i1wire.c      **** 		// Write '1' bit
  25:i1wire.c      **** 		OW_low;
  87               		.loc 1 25 0
  88 002e BB9A      		sbi 0x17,3
  89               	.LBE55:
  90               	.LBE54:
  22:i1wire.c      **** 	if (bit)
  91               		.loc 1 22 0
  92 0030 8823      		tst r24
  93 0032 01F0      		breq .L3
  94               	.LVL8:
  95               	.LBB61:
  96               	.LBB60:
  97               	.LBB56:
  98               	.LBB57:
  99               		.loc 2 276 0
 100 0034 80E2      		ldi r24,lo8(32)
 101 0036 8A95      	1:	dec r24
 102 0038 01F4      		brne 1b
 103               	.LVL9:
 104               	.LBE57:
 105               	.LBE56:
  26:i1wire.c      **** 		_delay_us(6);
  27:i1wire.c      **** 		OW_high;
 106               		.loc 1 27 0
 107 003a BB98      		cbi 0x17,3
 108               	.LVL10:
 109               	.LBB58:
 110               	.LBB59:
 111               		.loc 2 276 0
 112 003c 8FEF      		ldi r24,lo8(255)
 113 003e 90E0      		ldi r25,hi8(255)
 114 0040 0197      	1:	sbiw r24,1
 115 0042 01F4      		brne 1b
 116 0044 00C0      		rjmp .
 117 0046 00C0      		rjmp .L5
 118               	.LVL11:
 119               	.L3:
 120               	.LBE59:
 121               	.LBE58:
 122               	.LBE60:
 123               	.LBE61:
 124               	.LBB62:
 125               	.LBB63:
 126 0048 8FEE      		ldi r24,lo8(239)
 127 004a 90E0      		ldi r25,hi8(239)
 128 004c 0197      	1:	sbiw r24,1
 129 004e 01F4      		brne 1b
 130               	.LVL12:
 131 0050 00C0      		rjmp .
 132 0052 0000      		nop
 133               	.LVL13:
 134               	.LBE63:
 135               	.LBE62:
  28:i1wire.c      **** 		_delay_us(64); // Complete the time slot and 10us recovery
  29:i1wire.c      **** 	}
  30:i1wire.c      **** 	else
  31:i1wire.c      **** 	{
  32:i1wire.c      **** 		// Write '0' bit
  33:i1wire.c      **** 		OW_low; // Drives DQ low
  34:i1wire.c      **** 		_delay_us(60);
  35:i1wire.c      **** 		OW_high; // Releases the bus
 136               		.loc 1 35 0
 137 0054 BB98      		cbi 0x17,3
 138               	.LVL14:
 139               	.LBB64:
 140               	.LBB65:
 141               		.loc 2 276 0
 142 0056 95E3      		ldi r25,lo8(53)
 143 0058 9A95      	1:	dec r25
 144 005a 01F4      		brne 1b
 145               	.LVL15:
 146               	.L5:
 147 005c 0000      		nop
 148 005e 0895      		ret
 149               	.LBE65:
 150               	.LBE64:
 151               		.cfi_endproc
 152               	.LFE7:
 154               	.global	OWReadBit
 156               	OWReadBit:
 157               	.LFB8:
  36:i1wire.c      **** 		_delay_us(10);
  37:i1wire.c      **** 	}
  38:i1wire.c      **** }
  39:i1wire.c      **** 
  40:i1wire.c      **** uint8_t OWReadBit(void){
 158               		.loc 1 40 0
 159               		.cfi_startproc
 160               	/* prologue: function */
 161               	/* frame size = 0 */
 162               	/* stack size = 0 */
 163               	.L__stack_usage = 0
  41:i1wire.c      **** 	uint8_t result;
  42:i1wire.c      **** 	OW_low; // Drives DQ low
 164               		.loc 1 42 0
 165 0060 BB9A      		sbi 0x17,3
 166               	.LVL16:
 167               	.LBB66:
 168               	.LBB67:
 169               		.loc 2 276 0
 170 0062 80E2      		ldi r24,lo8(32)
 171 0064 8A95      	1:	dec r24
 172 0066 01F4      		brne 1b
 173               	.LVL17:
 174               	.LBE67:
 175               	.LBE66:
  43:i1wire.c      **** 	_delay_us(6);
  44:i1wire.c      **** 	OW_high; // Releases the bus
 176               		.loc 1 44 0
 177 0068 BB98      		cbi 0x17,3
 178               	.LVL18:
 179               	.LBB68:
 180               	.LBB69:
 181               		.loc 2 276 0
 182 006a E0E3      		ldi r30,lo8(48)
 183 006c EA95      	1:	dec r30
 184 006e 01F4      		brne 1b
 185               	.LVL19:
 186               	.LBE69:
 187               	.LBE68:
  45:i1wire.c      **** 	_delay_us(9);
  46:i1wire.c      **** 	result = OW_check; // Sample the bit value from the slave
 188               		.loc 1 46 0
 189 0070 86B3      		in r24,0x16
 190               	.LVL20:
 191               	.LBB70:
 192               	.LBB71:
 193               		.loc 2 276 0
 194 0072 EBED      		ldi r30,lo8(219)
 195 0074 F0E0      		ldi r31,hi8(219)
 196 0076 3197      	1:	sbiw r30,1
 197 0078 01F4      		brne 1b
 198 007a 00C0      		rjmp .
 199 007c 0000      		nop
 200               	.LVL21:
 201               	.LBE71:
 202               	.LBE70:
  47:i1wire.c      **** 	_delay_us(55);// Complete the time slot and 10us recovery
  48:i1wire.c      **** 	return result;
  49:i1wire.c      **** }
 203               		.loc 1 49 0
 204 007e 8870      		andi r24,lo8(8)
 205               	.LVL22:
 206 0080 0895      		ret
 207               		.cfi_endproc
 208               	.LFE8:
 210               	.global	OW_send
 212               	OW_send:
 213               	.LFB9:
  50:i1wire.c      **** 
  51:i1wire.c      **** 
  52:i1wire.c      **** void OW_send(uint8_t data){
 214               		.loc 1 52 0
 215               		.cfi_startproc
 216               	.LVL23:
 217 0082 1F93      		push r17
 218               	.LCFI0:
 219               		.cfi_def_cfa_offset 3
 220               		.cfi_offset 17, -2
 221 0084 CF93      		push r28
 222               	.LCFI1:
 223               		.cfi_def_cfa_offset 4
 224               		.cfi_offset 28, -3
 225 0086 DF93      		push r29
 226               	.LCFI2:
 227               		.cfi_def_cfa_offset 5
 228               		.cfi_offset 29, -4
 229               	/* prologue: function */
 230               	/* frame size = 0 */
 231               	/* stack size = 3 */
 232               	.L__stack_usage = 3
 233 0088 182F      		mov r17,r24
 234               	.LVL24:
 235               		.loc 1 52 0
 236 008a C8E0      		ldi r28,lo8(8)
 237 008c D0E0      		ldi r29,0
 238               	.LVL25:
 239               	.L9:
 240               	.LBB72:
  53:i1wire.c      **** 	uint8_t tmp;
  54:i1wire.c      **** 	for(int i=0; i<8; i++){
  55:i1wire.c      **** 		tmp = data & 0x01;
  56:i1wire.c      **** 		OWWriteBit(tmp);
 241               		.loc 1 56 0 discriminator 3
 242 008e 812F      		mov r24,r17
 243 0090 8170      		andi r24,lo8(1)
 244               	.LVL26:
 245 0092 0E94 0000 		call OWWriteBit
 246               	.LVL27:
  57:i1wire.c      **** 		data >>= 1;
 247               		.loc 1 57 0 discriminator 3
 248 0096 1695      		lsr r17
 249               	.LVL28:
 250 0098 2197      		sbiw r28,1
 251               	.LVL29:
  54:i1wire.c      **** 		tmp = data & 0x01;
 252               		.loc 1 54 0 discriminator 3
 253 009a 01F4      		brne .L9
 254               	/* epilogue start */
 255               	.LBE72:
  58:i1wire.c      **** 	}
  59:i1wire.c      **** }
 256               		.loc 1 59 0
 257 009c DF91      		pop r29
 258 009e CF91      		pop r28
 259               	.LVL30:
 260 00a0 1F91      		pop r17
 261               	.LVL31:
 262 00a2 0895      		ret
 263               		.cfi_endproc
 264               	.LFE9:
 266               	.global	OW_recv
 268               	OW_recv:
 269               	.LFB10:
  60:i1wire.c      **** 
  61:i1wire.c      **** uint8_t OW_recv(void){
 270               		.loc 1 61 0
 271               		.cfi_startproc
 272 00a4 0F93      		push r16
 273               	.LCFI3:
 274               		.cfi_def_cfa_offset 3
 275               		.cfi_offset 16, -2
 276 00a6 1F93      		push r17
 277               	.LCFI4:
 278               		.cfi_def_cfa_offset 4
 279               		.cfi_offset 17, -3
 280 00a8 CF93      		push r28
 281               	.LCFI5:
 282               		.cfi_def_cfa_offset 5
 283               		.cfi_offset 28, -4
 284               	/* prologue: function */
 285               	/* frame size = 0 */
 286               	/* stack size = 3 */
 287               	.L__stack_usage = 3
 288               	.LVL32:
 289               		.loc 1 61 0
 290 00aa 08E0      		ldi r16,lo8(8)
 291 00ac 10E0      		ldi r17,0
  62:i1wire.c      **** 	uint8_t data = 0;
 292               		.loc 1 62 0
 293 00ae C0E0      		ldi r28,0
 294               	.LVL33:
 295               	.L13:
 296               	.LBB73:
  63:i1wire.c      **** 	for(int i=0; i<8; i++){
  64:i1wire.c      **** 		data >>= 1;
 297               		.loc 1 64 0
 298 00b0 C695      		lsr r28
 299               	.LVL34:
  65:i1wire.c      **** 		if(OWReadBit()) data |= 0x80;
 300               		.loc 1 65 0
 301 00b2 0E94 0000 		call OWReadBit
 302               	.LVL35:
 303 00b6 8111      		cpse r24,__zero_reg__
 304               		.loc 1 65 0 is_stmt 0 discriminator 1
 305 00b8 C068      		ori r28,lo8(-128)
 306               	.LVL36:
 307               	.L12:
 308 00ba 0150      		subi r16,1
 309 00bc 1109      		sbc r17,__zero_reg__
 310               	.LVL37:
  63:i1wire.c      **** 	for(int i=0; i<8; i++){
 311               		.loc 1 63 0 is_stmt 1 discriminator 2
 312 00be 01F4      		brne .L13
 313               	.LBE73:
  66:i1wire.c      **** 	}
  67:i1wire.c      **** 	return data;
  68:i1wire.c      **** }
 314               		.loc 1 68 0
 315 00c0 8C2F      		mov r24,r28
 316               	/* epilogue start */
 317 00c2 CF91      		pop r28
 318               	.LVL38:
 319 00c4 1F91      		pop r17
 320 00c6 0F91      		pop r16
 321               	.LVL39:
 322 00c8 0895      		ret
 323               		.cfi_endproc
 324               	.LFE10:
 326               	.global	DS18B20_start
 328               	DS18B20_start:
 329               	.LFB11:
  69:i1wire.c      **** 
  70:i1wire.c      **** uint8_t DS18B20_start(void){
 330               		.loc 1 70 0
 331               		.cfi_startproc
 332               	/* prologue: function */
 333               	/* frame size = 0 */
 334               	/* stack size = 0 */
 335               	.L__stack_usage = 0
  71:i1wire.c      **** 	OW_reset();
 336               		.loc 1 71 0
 337 00ca 0E94 0000 		call OW_reset
 338               	.LVL40:
  72:i1wire.c      **** 	OW_send(0xCC);
 339               		.loc 1 72 0
 340 00ce 8CEC      		ldi r24,lo8(-52)
 341 00d0 0E94 0000 		call OW_send
 342               	.LVL41:
  73:i1wire.c      **** 	OW_send(0x44);
 343               		.loc 1 73 0
 344 00d4 84E4      		ldi r24,lo8(68)
 345 00d6 0E94 0000 		call OW_send
 346               	.LVL42:
  74:i1wire.c      **** 	return 0;
  75:i1wire.c      **** }
 347               		.loc 1 75 0
 348 00da 80E0      		ldi r24,0
 349 00dc 0895      		ret
 350               		.cfi_endproc
 351               	.LFE11:
 353               	.global	DS18B20_read
 355               	DS18B20_read:
 356               	.LFB12:
  76:i1wire.c      **** 
  77:i1wire.c      **** uint16_t DS18B20_read(void){
 357               		.loc 1 77 0
 358               		.cfi_startproc
 359 00de CF93      		push r28
 360               	.LCFI6:
 361               		.cfi_def_cfa_offset 3
 362               		.cfi_offset 28, -2
 363               	/* prologue: function */
 364               	/* frame size = 0 */
 365               	/* stack size = 1 */
 366               	.L__stack_usage = 1
  78:i1wire.c      **** 	OW_reset();
 367               		.loc 1 78 0
 368 00e0 0E94 0000 		call OW_reset
 369               	.LVL43:
  79:i1wire.c      **** 	OW_send(0xCC);
 370               		.loc 1 79 0
 371 00e4 8CEC      		ldi r24,lo8(-52)
 372 00e6 0E94 0000 		call OW_send
 373               	.LVL44:
  80:i1wire.c      **** 	OW_send(0xBE);
 374               		.loc 1 80 0
 375 00ea 8EEB      		ldi r24,lo8(-66)
 376 00ec 0E94 0000 		call OW_send
 377               	.LVL45:
  81:i1wire.c      **** 	uint8_t a,b;
  82:i1wire.c      **** 	uint16_t temp;
  83:i1wire.c      **** 	b = OW_recv(); //mlodszy bajt
 378               		.loc 1 83 0
 379 00f0 0E94 0000 		call OW_recv
 380               	.LVL46:
 381 00f4 C82F      		mov r28,r24
 382               	.LVL47:
  84:i1wire.c      **** 	a = OW_recv(); //starszy bajt
 383               		.loc 1 84 0
 384 00f6 0E94 0000 		call OW_recv
 385               	.LVL48:
  85:i1wire.c      **** 	
  86:i1wire.c      **** 	temp = ( a<<8 ) + b;
  87:i1wire.c      **** 	return temp;
 386               		.loc 1 87 0
 387 00fa 90E0      		ldi r25,0
 388 00fc 982F      		mov r25,r24
 389 00fe 8827      		clr r24
 390               	.LVL49:
  88:i1wire.c      **** }
 391               		.loc 1 88 0
 392 0100 8C0F      		add r24,r28
 393 0102 911D      		adc r25,__zero_reg__
 394               	/* epilogue start */
 395 0104 CF91      		pop r28
 396               	.LVL50:
 397 0106 0895      		ret
 398               		.cfi_endproc
 399               	.LFE12:
 401               	.Letext0:
 402               		.file 3 "/usr/lib/avr/include/stdint.h"